target datalayout = "e-m:e-p270:32:32-p271:32:32-p272:64:64-i64:64-i128:128-f80:128-n8:16:32:64-S128"
target triple = "x86_64-pc-linux-gnu"

%struct.Llb_Mtr_t_ = type { i32, i32, i32, i32, ptr, ptr, ptr, ptr, ptr, ptr, ptr }

@.str.9 = private unnamed_addr constant [45 x i8] c"[%4d x %4d]  Life-span =%6.2f  Max-cut =%5d\0A\00", align 1
@.str.10 = private unnamed_addr constant [28 x i8] c"Cut size is not zero (%d).\0A\00", align 1

; Function Attrs: nounwind uwtable
define void @Llb_MtrPrintMatrixStats(ptr noundef %0) #0 {
  %2 = alloca ptr, align 8
  %3 = alloca i32, align 4
  %4 = alloca i32, align 4
  %5 = alloca i32, align 4
  %6 = alloca i32, align 4
  %7 = alloca i32, align 4
  %8 = alloca i32, align 4
  %9 = alloca i32, align 4
  %10 = alloca ptr, align 8
  %11 = alloca ptr, align 8
  store ptr %0, ptr %2, align 8, !tbaa !3
  call void @llvm.lifetime.start.p0(i64 4, ptr %3) #8
  call void @llvm.lifetime.start.p0(i64 4, ptr %4) #8
  call void @llvm.lifetime.start.p0(i64 4, ptr %5) #8
  call void @llvm.lifetime.start.p0(i64 4, ptr %6) #8
  call void @llvm.lifetime.start.p0(i64 4, ptr %7) #8
  store i32 0, ptr %7, align 4, !tbaa !8
  call void @llvm.lifetime.start.p0(i64 4, ptr %8) #8
  store i32 0, ptr %8, align 4, !tbaa !8
  call void @llvm.lifetime.start.p0(i64 4, ptr %9) #8
  store i32 0, ptr %9, align 4, !tbaa !8
  call void @llvm.lifetime.start.p0(i64 8, ptr %10) #8
  %12 = load ptr, ptr %2, align 8, !tbaa !3
  %13 = getelementptr inbounds nuw %struct.Llb_Mtr_t_, ptr %12, i32 0, i32 2
  %14 = load i32, ptr %13, align 8, !tbaa !17
  %15 = sext i32 %14 to i64
  %16 = call noalias ptr @calloc(i64 noundef %15, i64 noundef 4) #9
  store ptr %16, ptr %10, align 8, !tbaa !26
  call void @llvm.lifetime.start.p0(i64 8, ptr %11) #8
  %17 = load ptr, ptr %2, align 8, !tbaa !3
  %18 = getelementptr inbounds nuw %struct.Llb_Mtr_t_, ptr %17, i32 0, i32 2
  %19 = load i32, ptr %18, align 8, !tbaa !17
  %20 = sext i32 %19 to i64
  %21 = call noalias ptr @calloc(i64 noundef %20, i64 noundef 4) #9
  store ptr %21, ptr %11, align 8, !tbaa !26
  store i32 0, ptr %3, align 4, !tbaa !8
  br label %22

22:                                               ; preds = %107, %1
  %23 = load i32, ptr %3, align 4, !tbaa !8
  %24 = load ptr, ptr %2, align 8, !tbaa !3
  %25 = getelementptr inbounds nuw %struct.Llb_Mtr_t_, ptr %24, i32 0, i32 2
  %26 = load i32, ptr %25, align 8, !tbaa !17
  %27 = icmp slt i32 %23, %26
  br i1 %27, label %28, label %110

28:                                               ; preds = %22
  %29 = load ptr, ptr %2, align 8, !tbaa !3
  %30 = getelementptr inbounds nuw %struct.Llb_Mtr_t_, ptr %29, i32 0, i32 6
  %31 = load ptr, ptr %30, align 8, !tbaa !33
  %32 = load i32, ptr %3, align 4, !tbaa !8
  %33 = sext i32 %32 to i64
  %34 = getelementptr inbounds i32, ptr %31, i64 %33
  %35 = load i32, ptr %34, align 4, !tbaa !8
  %36 = icmp eq i32 %35, 0
  br i1 %36, label %37, label %38

37:                                               ; preds = %28
  br label %107

38:                                               ; preds = %28
  store i32 0, ptr %5, align 4, !tbaa !8
  br label %39

39:                                               ; preds = %61, %38
  %40 = load i32, ptr %5, align 4, !tbaa !8
  %41 = load ptr, ptr %2, align 8, !tbaa !3
  %42 = getelementptr inbounds nuw %struct.Llb_Mtr_t_, ptr %41, i32 0, i32 3
  %43 = load i32, ptr %42, align 4, !tbaa !10
  %44 = icmp slt i32 %40, %43
  br i1 %44, label %45, label %64

45:                                               ; preds = %39
  %46 = load ptr, ptr %2, align 8, !tbaa !3
  %47 = getelementptr inbounds nuw %struct.Llb_Mtr_t_, ptr %46, i32 0, i32 7
  %48 = load ptr, ptr %47, align 8, !tbaa !18
  %49 = load i32, ptr %5, align 4, !tbaa !8
  %50 = sext i32 %49 to i64
  %51 = getelementptr inbounds ptr, ptr %48, i64 %50
  %52 = load ptr, ptr %51, align 8, !tbaa !19
  %53 = load i32, ptr %3, align 4, !tbaa !8
  %54 = sext i32 %53 to i64
  %55 = getelementptr inbounds i8, ptr %52, i64 %54
  %56 = load i8, ptr %55, align 1, !tbaa !20
  %57 = sext i8 %56 to i32
  %58 = icmp eq i32 %57, 1
  br i1 %58, label %59, label %60

59:                                               ; preds = %45
  br label %64

60:                                               ; preds = %45
  br label %61

61:                                               ; preds = %60
  %62 = load i32, ptr %5, align 4, !tbaa !8
  %63 = add nsw i32 %62, 1
  store i32 %63, ptr %5, align 4, !tbaa !8
  br label %39, !llvm.loop !36

64:                                               ; preds = %59, %39
  %65 = load ptr, ptr %2, align 8, !tbaa !3
  %66 = getelementptr inbounds nuw %struct.Llb_Mtr_t_, ptr %65, i32 0, i32 3
  %67 = load i32, ptr %66, align 4, !tbaa !10
  %68 = sub nsw i32 %67, 1
  store i32 %68, ptr %6, align 4, !tbaa !8
  br label %69

69:                                               ; preds = %88, %64
  %70 = load i32, ptr %6, align 4, !tbaa !8
  %71 = icmp sge i32 %70, 0
  br i1 %71, label %72, label %91

72:                                               ; preds = %69
  %73 = load ptr, ptr %2, align 8, !tbaa !3
  %74 = getelementptr inbounds nuw %struct.Llb_Mtr_t_, ptr %73, i32 0, i32 7
  %75 = load ptr, ptr %74, align 8, !tbaa !18
  %76 = load i32, ptr %6, align 4, !tbaa !8
  %77 = sext i32 %76 to i64
  %78 = getelementptr inbounds ptr, ptr %75, i64 %77
  %79 = load ptr, ptr %78, align 8, !tbaa !19
  %80 = load i32, ptr %3, align 4, !tbaa !8
  %81 = sext i32 %80 to i64
  %82 = getelementptr inbounds i8, ptr %79, i64 %81
  %83 = load i8, ptr %82, align 1, !tbaa !20
  %84 = sext i8 %83 to i32
  %85 = icmp eq i32 %84, 1
  br i1 %85, label %86, label %87

86:                                               ; preds = %72
  br label %91

87:                                               ; preds = %72
  br label %88

88:                                               ; preds = %87
  %89 = load i32, ptr %6, align 4, !tbaa !8
  %90 = add nsw i32 %89, -1
  store i32 %90, ptr %6, align 4, !tbaa !8
  br label %69, !llvm.loop !37

91:                                               ; preds = %86, %69
  %92 = load i32, ptr %5, align 4, !tbaa !8
  %93 = load ptr, ptr %10, align 8, !tbaa !26
  %94 = load i32, ptr %3, align 4, !tbaa !8
  %95 = sext i32 %94 to i64
  %96 = getelementptr inbounds i32, ptr %93, i64 %95
  store i32 %92, ptr %96, align 4, !tbaa !8
  %97 = load i32, ptr %6, align 4, !tbaa !8
  %98 = load ptr, ptr %11, align 8, !tbaa !26
  %99 = load i32, ptr %3, align 4, !tbaa !8
  %100 = sext i32 %99 to i64
  %101 = getelementptr inbounds i32, ptr %98, i64 %100
  store i32 %97, ptr %101, align 4, !tbaa !8
  %102 = load i32, ptr %6, align 4, !tbaa !8
  %103 = load i32, ptr %5, align 4, !tbaa !8
  %104 = sub nsw i32 %102, %103
  %105 = load i32, ptr %7, align 4, !tbaa !8
  %106 = add nsw i32 %105, %104
  store i32 %106, ptr %7, align 4, !tbaa !8
  br label %107

107:                                              ; preds = %91, %37
  %108 = load i32, ptr %3, align 4, !tbaa !8
  %109 = add nsw i32 %108, 1
  store i32 %109, ptr %3, align 4, !tbaa !8
  br label %22, !llvm.loop !38

110:                                              ; preds = %22
  store i32 0, ptr %4, align 4, !tbaa !8
  br label %111

111:                                              ; preds = %168, %110
  %112 = load i32, ptr %4, align 4, !tbaa !8
  %113 = load ptr, ptr %2, align 8, !tbaa !3
  %114 = getelementptr inbounds nuw %struct.Llb_Mtr_t_, ptr %113, i32 0, i32 3
  %115 = load i32, ptr %114, align 4, !tbaa !10
  %116 = icmp slt i32 %112, %115
  br i1 %116, label %117, label %171

117:                                              ; preds = %111
  store i32 0, ptr %3, align 4, !tbaa !8
  br label %118

118:                                              ; preds = %136, %117
  %119 = load i32, ptr %3, align 4, !tbaa !8
  %120 = load ptr, ptr %2, align 8, !tbaa !3
  %121 = getelementptr inbounds nuw %struct.Llb_Mtr_t_, ptr %120, i32 0, i32 2
  %122 = load i32, ptr %121, align 8, !tbaa !17
  %123 = icmp slt i32 %119, %122
  br i1 %123, label %124, label %139

124:                                              ; preds = %118
  %125 = load ptr, ptr %10, align 8, !tbaa !26
  %126 = load i32, ptr %3, align 4, !tbaa !8
  %127 = sext i32 %126 to i64
  %128 = getelementptr inbounds i32, ptr %125, i64 %127
  %129 = load i32, ptr %128, align 4, !tbaa !8
  %130 = load i32, ptr %4, align 4, !tbaa !8
  %131 = icmp eq i32 %129, %130
  br i1 %131, label %132, label %135

132:                                              ; preds = %124
  %133 = load i32, ptr %8, align 4, !tbaa !8
  %134 = add nsw i32 %133, 1
  store i32 %134, ptr %8, align 4, !tbaa !8
  br label %135

135:                                              ; preds = %132, %124
  br label %136

136:                                              ; preds = %135
  %137 = load i32, ptr %3, align 4, !tbaa !8
  %138 = add nsw i32 %137, 1
  store i32 %138, ptr %3, align 4, !tbaa !8
  br label %118, !llvm.loop !39

139:                                              ; preds = %118
  %140 = load i32, ptr %9, align 4, !tbaa !8
  %141 = load i32, ptr %8, align 4, !tbaa !8
  %142 = icmp slt i32 %140, %141
  br i1 %142, label %143, label %145

143:                                              ; preds = %139
  %144 = load i32, ptr %8, align 4, !tbaa !8
  store i32 %144, ptr %9, align 4, !tbaa !8
  br label %145

145:                                              ; preds = %143, %139
  store i32 0, ptr %3, align 4, !tbaa !8
  br label %146

146:                                              ; preds = %164, %145
  %147 = load i32, ptr %3, align 4, !tbaa !8
  %148 = load ptr, ptr %2, align 8, !tbaa !3
  %149 = getelementptr inbounds nuw %struct.Llb_Mtr_t_, ptr %148, i32 0, i32 2
  %150 = load i32, ptr %149, align 8, !tbaa !17
  %151 = icmp slt i32 %147, %150
  br i1 %151, label %152, label %167

152:                                              ; preds = %146
  %153 = load ptr, ptr %11, align 8, !tbaa !26
  %154 = load i32, ptr %3, align 4, !tbaa !8
  %155 = sext i32 %154 to i64
  %156 = getelementptr inbounds i32, ptr %153, i64 %155
  %157 = load i32, ptr %156, align 4, !tbaa !8
  %158 = load i32, ptr %4, align 4, !tbaa !8
  %159 = icmp eq i32 %157, %158
  br i1 %159, label %160, label %163

160:                                              ; preds = %152
  %161 = load i32, ptr %8, align 4, !tbaa !8
  %162 = add nsw i32 %161, -1
  store i32 %162, ptr %8, align 4, !tbaa !8
  br label %163

163:                                              ; preds = %160, %152
  br label %164

164:                                              ; preds = %163
  %165 = load i32, ptr %3, align 4, !tbaa !8
  %166 = add nsw i32 %165, 1
  store i32 %166, ptr %3, align 4, !tbaa !8
  br label %146, !llvm.loop !40

167:                                              ; preds = %146
  br label %168

168:                                              ; preds = %167
  %169 = load i32, ptr %4, align 4, !tbaa !8
  %170 = add nsw i32 %169, 1
  store i32 %170, ptr %4, align 4, !tbaa !8
  br label %111, !llvm.loop !41

171:                                              ; preds = %111
  %172 = load ptr, ptr %10, align 8, !tbaa !26
  %173 = icmp ne ptr %172, null
  br i1 %173, label %174, label %176

174:                                              ; preds = %171
  %175 = load ptr, ptr %10, align 8, !tbaa !26
  call void @free(ptr noundef %175) #8
  store ptr null, ptr %10, align 8, !tbaa !26
  br label %177

176:                                              ; preds = %171
  br label %177

177:                                              ; preds = %176, %174
  %178 = load ptr, ptr %11, align 8, !tbaa !26
  %179 = icmp ne ptr %178, null
  br i1 %179, label %180, label %182

180:                                              ; preds = %177
  %181 = load ptr, ptr %11, align 8, !tbaa !26
  call void @free(ptr noundef %181) #8
  store ptr null, ptr %11, align 8, !tbaa !26
  br label %183

182:                                              ; preds = %177
  br label %183

183:                                              ; preds = %182, %180
  %184 = load ptr, ptr %2, align 8, !tbaa !3
  %185 = getelementptr inbounds nuw %struct.Llb_Mtr_t_, ptr %184, i32 0, i32 3
  %186 = load i32, ptr %185, align 4, !tbaa !10
  %187 = load ptr, ptr %2, align 8, !tbaa !3
  %188 = getelementptr inbounds nuw %struct.Llb_Mtr_t_, ptr %187, i32 0, i32 2
  %189 = load i32, ptr %188, align 8, !tbaa !17
  %190 = load i32, ptr %7, align 4, !tbaa !8
  %191 = sitofp i32 %190 to double
  %192 = fmul double 1.000000e+00, %191
  %193 = load ptr, ptr %2, align 8, !tbaa !3
  %194 = getelementptr inbounds nuw %struct.Llb_Mtr_t_, ptr %193, i32 0, i32 2
  %195 = load i32, ptr %194, align 8, !tbaa !17
  %196 = sitofp i32 %195 to double
  %197 = fdiv double %192, %196
  %198 = load i32, ptr %9, align 4, !tbaa !8
  %199 = call i32 (ptr, ...) @printf(ptr noundef @.str.9, i32 noundef %186, i32 noundef %189, double noundef %197, i32 noundef %198)
  %200 = load i32, ptr %8, align 4, !tbaa !8
  %201 = icmp ne i32 %200, 0
  br i1 %201, label %202, label %204

202:                                              ; preds = %183
  %203 = load i32, ptr %8, align 4, !tbaa !8
  call void (i32, ptr, ...) @Abc_Print(i32 noundef -1, ptr noundef @.str.10, i32 noundef %203)
  br label %204

204:                                              ; preds = %202, %183
  call void @llvm.lifetime.end.p0(i64 8, ptr %11) #8
  call void @llvm.lifetime.end.p0(i64 8, ptr %10) #8
  call void @llvm.lifetime.end.p0(i64 4, ptr %9) #8
  call void @llvm.lifetime.end.p0(i64 4, ptr %8) #8
  call void @llvm.lifetime.end.p0(i64 4, ptr %7) #8
  call void @llvm.lifetime.end.p0(i64 4, ptr %6) #8
  call void @llvm.lifetime.end.p0(i64 4, ptr %5) #8
  call void @llvm.lifetime.end.p0(i64 4, ptr %4) #8
  call void @llvm.lifetime.end.p0(i64 4, ptr %3) #8
  ret void
}