; Function Attrs: nounwind uwtable
define void @Llb_MtrPrintMatrixStats(ptr noundef readonly captures(none) %0) local_unnamed_addr #6 {
  %2 = getelementptr inbounds nuw i8, ptr %0, i64 8
  %3 = load i32, ptr %2, align 8, !tbaa !3
  %4 = sext i32 %3 to i64
  %5 = tail call noalias ptr @calloc(i64 noundef %4, i64 noundef 4) #18
  %6 = tail call noalias ptr @calloc(i64 noundef %4, i64 noundef 4) #18
  %7 = icmp sgt i32 %3, 0
  br i1 %7, label %.lr.ph85, label %.preheader74.thread

.lr.ph85:                                         ; preds = %1
  %8 = getelementptr inbounds nuw i8, ptr %0, i64 32
  %9 = load ptr, ptr %8, align 8, !tbaa !26
  %10 = getelementptr inbounds nuw i8, ptr %0, i64 40
  %11 = getelementptr inbounds nuw i8, ptr %0, i64 12
  %wide.trip.count137 = zext nneg i32 %3 to i64
  br label %28

.preheader74:                                     ; preds = %59
  %12 = sitofp i32 %.161 to double
  %13 = getelementptr inbounds nuw i8, ptr %0, i64 12
  %14 = load i32, ptr %13, align 4, !tbaa !14
  %15 = icmp sgt i32 %14, 0
  br i1 %15, label %.preheader.us.us.preheader, label %._crit_edge101

.preheader74.thread:                              ; preds = %1
  %16 = getelementptr inbounds nuw i8, ptr %0, i64 12
  %17 = load i32, ptr %16, align 4, !tbaa !14
  br label %._crit_edge101

.preheader.us.us.preheader:                       ; preds = %.preheader74
  %wide.trip.count143 = zext nneg i32 %3 to i64
  br label %.preheader.us.us

.preheader.us.us:                                 ; preds = %.preheader.us.us.preheader, %._crit_edge96.us.us
  %.0100.us.us = phi i32 [ %spec.select72.us.us, %._crit_edge96.us.us ], [ 0, %.preheader.us.us.preheader ]
  %.05899.us.us = phi i32 [ %spec.select73.us.us, %._crit_edge96.us.us ], [ 0, %.preheader.us.us.preheader ]
  %.06498.us.us = phi i32 [ %27, %._crit_edge96.us.us ], [ 0, %.preheader.us.us.preheader ]
  br label %22

._crit_edge90.us.us:                              ; preds = %22, %._crit_edge90.us.us
  %indvars.iv145 = phi i64 [ %indvars.iv.next146, %._crit_edge90.us.us ], [ 0, %22 ]
  %.393.us.us = phi i32 [ %spec.select73.us.us, %._crit_edge90.us.us ], [ %spec.select.us.us, %22 ]
  %18 = getelementptr inbounds nuw i32, ptr %6, i64 %indvars.iv145
  %19 = load i32, ptr %18, align 4, !tbaa !15
  %20 = icmp eq i32 %19, %.06498.us.us
  %21 = sext i1 %20 to i32
  %spec.select73.us.us = add nsw i32 %.393.us.us, %21
  %indvars.iv.next146 = add nuw nsw i64 %indvars.iv145, 1
  %exitcond150.not = icmp eq i64 %indvars.iv.next146, %wide.trip.count143
  br i1 %exitcond150.not, label %._crit_edge96.us.us, label %._crit_edge90.us.us, !llvm.loop !29

22:                                               ; preds = %22, %.preheader.us.us
  %indvars.iv139 = phi i64 [ %indvars.iv.next140, %22 ], [ 0, %.preheader.us.us ]
  %.15988.us.us = phi i32 [ %spec.select.us.us, %22 ], [ %.05899.us.us, %.preheader.us.us ]
  %23 = getelementptr inbounds nuw i32, ptr %5, i64 %indvars.iv139
  %24 = load i32, ptr %23, align 4, !tbaa !15
  %25 = icmp eq i32 %24, %.06498.us.us
  %26 = zext i1 %25 to i32
  %spec.select.us.us = add nsw i32 %.15988.us.us, %26
  %indvars.iv.next140 = add nuw nsw i64 %indvars.iv139, 1
  %exitcond144.not = icmp eq i64 %indvars.iv.next140, %wide.trip.count143
  br i1 %exitcond144.not, label %._crit_edge90.us.us, label %22, !llvm.loop !30

._crit_edge96.us.us:                              ; preds = %._crit_edge90.us.us
  %spec.select72.us.us = tail call i32 @llvm.smax.i32(i32 %.0100.us.us, i32 %spec.select.us.us)
  %27 = add nuw nsw i32 %.06498.us.us, 1
  %exitcond151.not = icmp eq i32 %27, %14
  br i1 %exitcond151.not, label %._crit_edge101, label %.preheader.us.us, !llvm.loop !31

28:                                               ; preds = %.lr.ph85, %59
  %indvars.iv133 = phi i64 [ 0, %.lr.ph85 ], [ %indvars.iv.next134, %59 ]
  %.06083 = phi i32 [ 0, %.lr.ph85 ], [ %.161, %59 ]
  %29 = getelementptr inbounds nuw i32, ptr %9, i64 %indvars.iv133
  %30 = load i32, ptr %29, align 4, !tbaa !15
  %31 = icmp eq i32 %30, 0
  br i1 %31, label %59, label %.preheader75

.preheader75:                                     ; preds = %28
  %32 = load i32, ptr %11, align 4, !tbaa !14
  %33 = icmp sgt i32 %32, 0
  br i1 %33, label %.lr.ph, label %.preheader75.._crit_edge_crit_edge

.preheader75.._crit_edge_crit_edge:               ; preds = %.preheader75
  %.pre = zext i32 %32 to i64
  br label %._crit_edge

.lr.ph:                                           ; preds = %.preheader75
  %34 = load ptr, ptr %10, align 8, !tbaa !19
  %wide.trip.count = zext nneg i32 %32 to i64
  br label %35

35:                                               ; preds = %.lr.ph, %41
  %indvars.iv = phi i64 [ 0, %.lr.ph ], [ %indvars.iv.next, %41 ]
  %36 = getelementptr inbounds nuw ptr, ptr %34, i64 %indvars.iv
  %37 = load ptr, ptr %36, align 8, !tbaa !20
  %38 = getelementptr inbounds nuw i8, ptr %37, i64 %indvars.iv133
  %39 = load i8, ptr %38, align 1, !tbaa !21
  %40 = icmp eq i8 %39, 1
  br i1 %40, label %._crit_edge.loopexit.split.loop.exit, label %41

41:                                               ; preds = %35
  %indvars.iv.next = add nuw nsw i64 %indvars.iv, 1
  %exitcond.not = icmp eq i64 %indvars.iv.next, %wide.trip.count
  br i1 %exitcond.not, label %._crit_edge, label %35, !llvm.loop !32

._crit_edge.loopexit.split.loop.exit:             ; preds = %35
  %42 = trunc nuw nsw i64 %indvars.iv to i32
  br label %._crit_edge

._crit_edge:                                      ; preds = %41, %._crit_edge.loopexit.split.loop.exit, %.preheader75.._crit_edge_crit_edge
  %.pre-phi = phi i64 [ %.pre, %.preheader75.._crit_edge_crit_edge ], [ %wide.trip.count, %._crit_edge.loopexit.split.loop.exit ], [ %wide.trip.count, %41 ]
  %.063.lcssa = phi i32 [ 0, %.preheader75.._crit_edge_crit_edge ], [ %42, %._crit_edge.loopexit.split.loop.exit ], [ %32, %41 ]
  %smin = tail call i32 @llvm.smin.i32(i32 %32, i32 0)
  %43 = add i32 %smin, -1
  br label %44

44:                                               ; preds = %47, %._crit_edge
  %indvars.iv130 = phi i64 [ %indvars.iv.next131, %47 ], [ %.pre-phi, %._crit_edge ]
  %45 = trunc nuw i64 %indvars.iv130 to i32
  %46 = icmp sgt i32 %45, 0
  br i1 %46, label %47, label %.split.loop.exit159

47:                                               ; preds = %44
  %indvars.iv.next131 = add nsw i64 %indvars.iv130, -1
  %48 = load ptr, ptr %10, align 8, !tbaa !19
  %49 = and i64 %indvars.iv.next131, 4294967295
  %50 = getelementptr inbounds nuw ptr, ptr %48, i64 %49
  %51 = load ptr, ptr %50, align 8, !tbaa !20
  %52 = getelementptr inbounds nuw i8, ptr %51, i64 %indvars.iv133
  %53 = load i8, ptr %52, align 1, !tbaa !21
  %54 = icmp eq i8 %53, 1
  br i1 %54, label %.split.loop.exit, label %44, !llvm.loop !33

.split.loop.exit:                                 ; preds = %47
  %indvars.le = trunc i64 %indvars.iv.next131 to i32
  br label %.split.loop.exit159

.split.loop.exit159:                              ; preds = %44, %.split.loop.exit
  %.062.lcssa = phi i32 [ %indvars.le, %.split.loop.exit ], [ %43, %44 ]
  %55 = getelementptr inbounds nuw i32, ptr %5, i64 %indvars.iv133
  store i32 %.063.lcssa, ptr %55, align 4, !tbaa !15
  %56 = getelementptr inbounds nuw i32, ptr %6, i64 %indvars.iv133
  store i32 %.062.lcssa, ptr %56, align 4, !tbaa !15
  %57 = sub i32 %.06083, %.063.lcssa
  %58 = add i32 %57, %.062.lcssa
  br label %59

59:                                               ; preds = %28, %.split.loop.exit159
  %.161 = phi i32 [ %.06083, %28 ], [ %58, %.split.loop.exit159 ]
  %indvars.iv.next134 = add nuw nsw i64 %indvars.iv133, 1
  %exitcond138.not = icmp eq i64 %indvars.iv.next134, %wide.trip.count137
  br i1 %exitcond138.not, label %.preheader74, label %28, !llvm.loop !34

._crit_edge101:                                   ; preds = %._crit_edge96.us.us, %.preheader74.thread, %.preheader74
  %60 = phi i32 [ %14, %.preheader74 ], [ %17, %.preheader74.thread ], [ %14, %._crit_edge96.us.us ]
  %.060.lcssa153 = phi double [ %12, %.preheader74 ], [ 0.000000e+00, %.preheader74.thread ], [ %12, %._crit_edge96.us.us ]
  %.058.lcssa = phi i32 [ 0, %.preheader74 ], [ 0, %.preheader74.thread ], [ %spec.select73.us.us, %._crit_edge96.us.us ]
  %.0.lcssa = phi i32 [ 0, %.preheader74 ], [ 0, %.preheader74.thread ], [ %spec.select72.us.us, %._crit_edge96.us.us ]
  %.not = icmp eq ptr %5, null
  br i1 %.not, label %62, label %61

61:                                               ; preds = %._crit_edge101
  tail call void @free(ptr noundef nonnull %5) #19
  br label %62

62:                                               ; preds = %._crit_edge101, %61
  %.not70 = icmp eq ptr %6, null
  br i1 %.not70, label %64, label %63

63:                                               ; preds = %62
  tail call void @free(ptr noundef nonnull %6) #19
  br label %64

64:                                               ; preds = %62, %63
  %65 = sitofp i32 %3 to double
  %66 = fdiv double %.060.lcssa153, %65
  %67 = tail call i32 (ptr, ...) @printf(ptr noundef nonnull dereferenceable(1) @.str.9, i32 noundef %60, i32 noundef %3, double noundef %66, i32 noundef %.0.lcssa)
  %.not71 = icmp eq i32 %.058.lcssa, 0
  br i1 %.not71, label %69, label %68

68:                                               ; preds = %64
  tail call void (i32, ptr, ...) @Abc_Print(i32 poison, ptr nonnull poison, i32 noundef %.058.lcssa)
  br label %69

69:                                               ; preds = %68, %64
  ret void
}